target datalayout = "e-m:e-p270:32:32-p271:32:32-p272:64:64-i64:64-i128:128-f80:128-n8:16:32:64-S128"
target triple = "x86_64-pc-linux-gnu"

%struct.FuncState = type { ptr, ptr, ptr, ptr, ptr, ptr, i32, i32, i32, i32, i32, i32, i16, i8, [60 x %struct.upvaldesc], [200 x i16] }
%struct.upvaldesc = type { i8, i8 }
%struct.Proto = type { ptr, i8, i8, ptr, ptr, ptr, ptr, ptr, ptr, ptr, i32, i32, i32, i32, i32, i32, i32, i32, ptr, i8, i8, i8, i8 }
%struct.expdesc = type { i32, %union.anon, i32, i32 }
%union.anon = type { double }
%struct.anon = type { i32, i32 }

@.str = private unnamed_addr constant [35 x i8] c"function or expression too complex\00", align 1

; Function Attrs: nounwind uwtable
define hidden void @luaK_checkstack(ptr noundef %0, i32 noundef %1) #0 {
  %3 = alloca ptr, align 8
  %4 = alloca i32, align 4
  %5 = alloca i32, align 4
  store ptr %0, ptr %3, align 8, !tbaa !4
  store i32 %1, ptr %4, align 4, !tbaa !9
  call void @llvm.lifetime.start.p0(i64 4, ptr %5) #6
  %6 = load ptr, ptr %3, align 8, !tbaa !4
  %7 = getelementptr inbounds nuw %struct.FuncState, ptr %6, i32 0, i32 9
  %8 = load i32, ptr %7, align 4, !tbaa !42
  %9 = load i32, ptr %4, align 4, !tbaa !9
  %10 = add nsw i32 %8, %9
  store i32 %10, ptr %5, align 4, !tbaa !9
  %11 = load i32, ptr %5, align 4, !tbaa !9
  %12 = load ptr, ptr %3, align 8, !tbaa !4
  %13 = getelementptr inbounds nuw %struct.FuncState, ptr %12, i32 0, i32 0
  %14 = load ptr, ptr %13, align 8, !tbaa !21
  %15 = getelementptr inbounds nuw %struct.Proto, ptr %14, i32 0, i32 22
  %16 = load i8, ptr %15, align 1, !tbaa !43
  %17 = zext i8 %16 to i32
  %18 = icmp sgt i32 %11, %17
  br i1 %18, label %19, label %33

19:                                               ; preds = %2
  %20 = load i32, ptr %5, align 4, !tbaa !9
  %21 = icmp sge i32 %20, 250
  br i1 %21, label %22, label %26

22:                                               ; preds = %19
  %23 = load ptr, ptr %3, align 8, !tbaa !4
  %24 = getelementptr inbounds nuw %struct.FuncState, ptr %23, i32 0, i32 3
  %25 = load ptr, ptr %24, align 8, !tbaa !32
  call void @luaX_syntaxerror(ptr noundef %25, ptr noundef @.str)
  br label %26

26:                                               ; preds = %22, %19
  %27 = load i32, ptr %5, align 4, !tbaa !9
  %28 = trunc i32 %27 to i8
  %29 = load ptr, ptr %3, align 8, !tbaa !4
  %30 = getelementptr inbounds nuw %struct.FuncState, ptr %29, i32 0, i32 0
  %31 = load ptr, ptr %30, align 8, !tbaa !21
  %32 = getelementptr inbounds nuw %struct.Proto, ptr %31, i32 0, i32 22
  store i8 %28, ptr %32, align 1, !tbaa !43
  br label %33

33:                                               ; preds = %26, %2
  call void @llvm.lifetime.end.p0(i64 4, ptr %5) #6
  ret void
}

; Function Attrs: nounwind uwtable
define hidden void @luaK_reserveregs(ptr noundef %0, i32 noundef %1) #0 {
  %3 = alloca ptr, align 8
  %4 = alloca i32, align 4
  store ptr %0, ptr %3, align 8, !tbaa !4
  store i32 %1, ptr %4, align 4, !tbaa !9
  %5 = load ptr, ptr %3, align 8, !tbaa !4
  %6 = load i32, ptr %4, align 4, !tbaa !9
  call void @luaK_checkstack(ptr noundef %5, i32 noundef %6)
  %7 = load i32, ptr %4, align 4, !tbaa !9
  %8 = load ptr, ptr %3, align 8, !tbaa !4
  %9 = getelementptr inbounds nuw %struct.FuncState, ptr %8, i32 0, i32 9
  %10 = load i32, ptr %9, align 4, !tbaa !42
  %11 = add nsw i32 %10, %7
  store i32 %11, ptr %9, align 4, !tbaa !42
  ret void
}

; Function Attrs: nounwind uwtable
define hidden void @luaK_setreturns(ptr noundef %0, ptr noundef %1, i32 noundef %2) #0 {
  %4 = alloca ptr, align 8
  %5 = alloca ptr, align 8
  %6 = alloca i32, align 4
  store ptr %0, ptr %4, align 8, !tbaa !4
  store ptr %1, ptr %5, align 8, !tbaa !60
  store i32 %2, ptr %6, align 4, !tbaa !9
  %7 = load ptr, ptr %5, align 8, !tbaa !60
  %8 = getelementptr inbounds nuw %struct.expdesc, ptr %7, i32 0, i32 0
  %9 = load i32, ptr %8, align 8, !tbaa !62
  %10 = icmp eq i32 %9, 13
  br i1 %10, label %11, label %41

11:                                               ; preds = %3
  %12 = load ptr, ptr %4, align 8, !tbaa !4
  %13 = getelementptr inbounds nuw %struct.FuncState, ptr %12, i32 0, i32 0
  %14 = load ptr, ptr %13, align 8, !tbaa !21
  %15 = getelementptr inbounds nuw %struct.Proto, ptr %14, i32 0, i32 4
  %16 = load ptr, ptr %15, align 8, !tbaa !22
  %17 = load ptr, ptr %5, align 8, !tbaa !60
  %18 = getelementptr inbounds nuw %struct.expdesc, ptr %17, i32 0, i32 1
  %19 = getelementptr inbounds nuw %struct.anon, ptr %18, i32 0, i32 0
  %20 = load i32, ptr %19, align 8, !tbaa !46
  %21 = sext i32 %20 to i64
  %22 = getelementptr inbounds i32, ptr %16, i64 %21
  %23 = load i32, ptr %22, align 4, !tbaa !9
  %24 = and i32 %23, -8372225
  %25 = load i32, ptr %6, align 4, !tbaa !9
  %26 = add nsw i32 %25, 1
  %27 = shl i32 %26, 14
  %28 = and i32 %27, 8372224
  %29 = or i32 %24, %28
  %30 = load ptr, ptr %4, align 8, !tbaa !4
  %31 = getelementptr inbounds nuw %struct.FuncState, ptr %30, i32 0, i32 0
  %32 = load ptr, ptr %31, align 8, !tbaa !21
  %33 = getelementptr inbounds nuw %struct.Proto, ptr %32, i32 0, i32 4
  %34 = load ptr, ptr %33, align 8, !tbaa !22
  %35 = load ptr, ptr %5, align 8, !tbaa !60
  %36 = getelementptr inbounds nuw %struct.expdesc, ptr %35, i32 0, i32 1
  %37 = getelementptr inbounds nuw %struct.anon, ptr %36, i32 0, i32 0
  %38 = load i32, ptr %37, align 8, !tbaa !46
  %39 = sext i32 %38 to i64
  %40 = getelementptr inbounds i32, ptr %34, i64 %39
  store i32 %29, ptr %40, align 4, !tbaa !9
  br label %108

41:                                               ; preds = %3
  %42 = load ptr, ptr %5, align 8, !tbaa !60
  %43 = getelementptr inbounds nuw %struct.expdesc, ptr %42, i32 0, i32 0
  %44 = load i32, ptr %43, align 8, !tbaa !62
  %45 = icmp eq i32 %44, 14
  br i1 %45, label %46, label %107

46:                                               ; preds = %41
  %47 = load ptr, ptr %4, align 8, !tbaa !4
  %48 = getelementptr inbounds nuw %struct.FuncState, ptr %47, i32 0, i32 0
  %49 = load ptr, ptr %48, align 8, !tbaa !21
  %50 = getelementptr inbounds nuw %struct.Proto, ptr %49, i32 0, i32 4
  %51 = load ptr, ptr %50, align 8, !tbaa !22
  %52 = load ptr, ptr %5, align 8, !tbaa !60
  %53 = getelementptr inbounds nuw %struct.expdesc, ptr %52, i32 0, i32 1
  %54 = getelementptr inbounds nuw %struct.anon, ptr %53, i32 0, i32 0
  %55 = load i32, ptr %54, align 8, !tbaa !46
  %56 = sext i32 %55 to i64
  %57 = getelementptr inbounds i32, ptr %51, i64 %56
  %58 = load i32, ptr %57, align 4, !tbaa !9
  %59 = and i32 %58, 8388607
  %60 = load i32, ptr %6, align 4, !tbaa !9
  %61 = add nsw i32 %60, 1
  %62 = shl i32 %61, 23
  %63 = and i32 %62, -8388608
  %64 = or i32 %59, %63
  %65 = load ptr, ptr %4, align 8, !tbaa !4
  %66 = getelementptr inbounds nuw %struct.FuncState, ptr %65, i32 0, i32 0
  %67 = load ptr, ptr %66, align 8, !tbaa !21
  %68 = getelementptr inbounds nuw %struct.Proto, ptr %67, i32 0, i32 4
  %69 = load ptr, ptr %68, align 8, !tbaa !22
  %70 = load ptr, ptr %5, align 8, !tbaa !60
  %71 = getelementptr inbounds nuw %struct.expdesc, ptr %70, i32 0, i32 1
  %72 = getelementptr inbounds nuw %struct.anon, ptr %71, i32 0, i32 0
  %73 = load i32, ptr %72, align 8, !tbaa !46
  %74 = sext i32 %73 to i64
  %75 = getelementptr inbounds i32, ptr %69, i64 %74
  store i32 %64, ptr %75, align 4, !tbaa !9
  %76 = load ptr, ptr %4, align 8, !tbaa !4
  %77 = getelementptr inbounds nuw %struct.FuncState, ptr %76, i32 0, i32 0
  %78 = load ptr, ptr %77, align 8, !tbaa !21
  %79 = getelementptr inbounds nuw %struct.Proto, ptr %78, i32 0, i32 4
  %80 = load ptr, ptr %79, align 8, !tbaa !22
  %81 = load ptr, ptr %5, align 8, !tbaa !60
  %82 = getelementptr inbounds nuw %struct.expdesc, ptr %81, i32 0, i32 1
  %83 = getelementptr inbounds nuw %struct.anon, ptr %82, i32 0, i32 0
  %84 = load i32, ptr %83, align 8, !tbaa !46
  %85 = sext i32 %84 to i64
  %86 = getelementptr inbounds i32, ptr %80, i64 %85
  %87 = load i32, ptr %86, align 4, !tbaa !9
  %88 = and i32 %87, -16321
  %89 = load ptr, ptr %4, align 8, !tbaa !4
  %90 = getelementptr inbounds nuw %struct.FuncState, ptr %89, i32 0, i32 9
  %91 = load i32, ptr %90, align 4, !tbaa !42
  %92 = shl i32 %91, 6
  %93 = and i32 %92, 16320
  %94 = or i32 %88, %93
  %95 = load ptr, ptr %4, align 8, !tbaa !4
  %96 = getelementptr inbounds nuw %struct.FuncState, ptr %95, i32 0, i32 0
  %97 = load ptr, ptr %96, align 8, !tbaa !21
  %98 = getelementptr inbounds nuw %struct.Proto, ptr %97, i32 0, i32 4
  %99 = load ptr, ptr %98, align 8, !tbaa !22
  %100 = load ptr, ptr %5, align 8, !tbaa !60
  %101 = getelementptr inbounds nuw %struct.expdesc, ptr %100, i32 0, i32 1
  %102 = getelementptr inbounds nuw %struct.anon, ptr %101, i32 0, i32 0
  %103 = load i32, ptr %102, align 8, !tbaa !46
  %104 = sext i32 %103 to i64
  %105 = getelementptr inbounds i32, ptr %99, i64 %104
  store i32 %94, ptr %105, align 4, !tbaa !9
  %106 = load ptr, ptr %4, align 8, !tbaa !4
  call void @luaK_reserveregs(ptr noundef %106, i32 noundef 1)
  br label %107

107:                                              ; preds = %46, %41
  br label %108

108:                                              ; preds = %107, %11
  ret void
}