; Function Attrs: nounwind uwtable
define hidden void @luaK_setreturns(ptr noundef captures(none) %0, ptr noundef readonly captures(none) %1, i32 noundef %2) local_unnamed_addr #0 {
  %4 = load i32, ptr %1, align 8, !tbaa !51
  switch i32 %4, label %56 [
    i32 13, label %5
    i32 14, label %19
  ]

5:                                                ; preds = %3
  %6 = load ptr, ptr %0, align 8, !tbaa !19
  %7 = getelementptr inbounds nuw i8, ptr %6, i64 24
  %8 = load ptr, ptr %7, align 8, !tbaa !20
  %9 = getelementptr inbounds nuw i8, ptr %1, i64 8
  %10 = load i32, ptr %9, align 8, !tbaa !39
  %11 = sext i32 %10 to i64
  %12 = getelementptr inbounds i32, ptr %8, i64 %11
  %13 = load i32, ptr %12, align 4, !tbaa !29
  %14 = and i32 %13, -8372225
  %15 = shl i32 %2, 14
  %16 = add i32 %15, 16384
  %17 = and i32 %16, 8372224
  %18 = or disjoint i32 %14, %17
  store i32 %18, ptr %12, align 4, !tbaa !29
  br label %56

19:                                               ; preds = %3
  %20 = load ptr, ptr %0, align 8, !tbaa !19
  %21 = getelementptr inbounds nuw i8, ptr %20, i64 24
  %22 = load ptr, ptr %21, align 8, !tbaa !20
  %23 = getelementptr inbounds nuw i8, ptr %1, i64 8
  %24 = load i32, ptr %23, align 8, !tbaa !39
  %25 = sext i32 %24 to i64
  %26 = getelementptr inbounds i32, ptr %22, i64 %25
  %27 = load i32, ptr %26, align 4, !tbaa !29
  %28 = and i32 %27, 8388607
  %29 = shl i32 %2, 23
  %30 = add i32 %29, 8388608
  %31 = or disjoint i32 %28, %30
  store i32 %31, ptr %26, align 4, !tbaa !29
  %32 = load i32, ptr %23, align 8, !tbaa !39
  %33 = sext i32 %32 to i64
  %34 = getelementptr inbounds i32, ptr %22, i64 %33
  %35 = load i32, ptr %34, align 4, !tbaa !29
  %36 = and i32 %35, -16321
  %37 = getelementptr inbounds nuw i8, ptr %0, i64 60
  %38 = load i32, ptr %37, align 4, !tbaa !41
  %39 = shl i32 %38, 6
  %40 = and i32 %39, 16320
  %41 = or disjoint i32 %40, %36
  store i32 %41, ptr %34, align 4, !tbaa !29
  %42 = load i32, ptr %37, align 4, !tbaa !41
  %43 = add nsw i32 %42, 1
  %44 = getelementptr inbounds nuw i8, ptr %20, i64 115
  %45 = load i8, ptr %44, align 1, !tbaa !42
  %46 = zext i8 %45 to i32
  %.not = icmp slt i32 %42, %46
  br i1 %.not, label %luaK_reserveregs.exit, label %47

47:                                               ; preds = %19
  %48 = icmp samesign ugt i32 %43, 249
  br i1 %48, label %49, label %52

49:                                               ; preds = %47
  %50 = getelementptr inbounds nuw i8, ptr %0, i64 24
  %51 = load ptr, ptr %50, align 8, !tbaa !30
  tail call void @luaX_syntaxerror(ptr noundef %51, ptr noundef nonnull @.str) #8
  %.pre.i.i = load ptr, ptr %0, align 8, !tbaa !19
  %.pre.pre.i = load i32, ptr %37, align 4, !tbaa !41
  %.pre5.i = add nsw i32 %.pre.pre.i, 1
  br label %52

52:                                               ; preds = %49, %47
  %.pre4.pre-phi.i = phi i32 [ %.pre5.i, %49 ], [ %43, %47 ]
  %53 = phi ptr [ %.pre.i.i, %49 ], [ %20, %47 ]
  %54 = trunc i32 %43 to i8
  %55 = getelementptr inbounds nuw i8, ptr %53, i64 115
  store i8 %54, ptr %55, align 1, !tbaa !42
  br label %luaK_reserveregs.exit

luaK_reserveregs.exit:                            ; preds = %19, %52
  %.pre-phi.i = phi i32 [ %43, %19 ], [ %.pre4.pre-phi.i, %52 ]
  store i32 %.pre-phi.i, ptr %37, align 4, !tbaa !41
  br label %56

56:                                               ; preds = %3, %luaK_reserveregs.exit, %5
  ret void
}